; Function Attrs: mustprogress uwtable
define internal noundef zeroext i1 @_ZNSt17_Function_handlerIFvPKN3dap8TypeInfoEPKvEZZN12_GLOBAL__N_14Impl14processRequestEPNS0_4json19JsonCppDeserializerENS0_7integerEENKUlvE_clEvEUlS3_S5_E_E10_M_managerERSt9_Any_dataRKSG_St18_Manager_operation(ptr nocapture noundef nonnull align 8 dereferenceable(16) %0, ptr nocapture noundef nonnull readonly align 8 dereferenceable(16) %1, i32 noundef %2) #0 align 2 personality ptr @__gxx_personality_v0 {
  switch i32 %2, label %_ZNSt14_Function_base13_Base_managerIZZN12_GLOBAL__N_14Impl14processRequestEPN3dap4json19JsonCppDeserializerENS3_7integerEENKUlvE_clEvEUlPKNS3_8TypeInfoEPKvE_E10_M_managerERSt9_Any_dataRKSG_St18_Manager_operation.exit [
    i32 0, label %4
    i32 1, label %5
    i32 3, label %12
    i32 2, label %6
  ]

4:                                                ; preds = %3
  store ptr @_ZTIZZN12_GLOBAL__N_14Impl14processRequestEPN3dap4json19JsonCppDeserializerENS1_7integerEENKUlvE_clEvEUlPKNS1_8TypeInfoEPKvE_, ptr %0, align 8
  br label %_ZNSt14_Function_base13_Base_managerIZZN12_GLOBAL__N_14Impl14processRequestEPN3dap4json19JsonCppDeserializerENS3_7integerEENKUlvE_clEvEUlPKNS3_8TypeInfoEPKvE_E10_M_managerERSt9_Any_dataRKSG_St18_Manager_operation.exit

5:                                                ; preds = %3
  %.val = load ptr, ptr %1, align 8
  store ptr %.val, ptr %0, align 8
  br label %_ZNSt14_Function_base13_Base_managerIZZN12_GLOBAL__N_14Impl14processRequestEPN3dap4json19JsonCppDeserializerENS3_7integerEENKUlvE_clEvEUlPKNS3_8TypeInfoEPKvE_E10_M_managerERSt9_Any_dataRKSG_St18_Manager_operation.exit

6:                                                ; preds = %3
  %.val6 = load ptr, ptr %1, align 8
  %7 = tail call noalias noundef nonnull dereferenceable(48) ptr @_Znwm(i64 noundef 48) #24
  tail call void @llvm.memcpy.p0.p0.i64(ptr noundef nonnull align 8 dereferenceable(16) %7, ptr noundef nonnull align 8 dereferenceable(16) %.val6, i64 16, i1 false)
  %8 = getelementptr inbounds i8, ptr %7, i64 16
  %9 = getelementptr inbounds i8, ptr %.val6, i64 16
  invoke void @_ZNSt7__cxx1112basic_stringIcSt11char_traitsIcESaIcEEC1ERKS4_(ptr noundef nonnull align 8 dereferenceable(32) %8, ptr noundef nonnull align 8 dereferenceable(32) %9)
          to label %_ZNSt14_Function_base13_Base_managerIZZN12_GLOBAL__N_14Impl14processRequestEPN3dap4json19JsonCppDeserializerENS3_7integerEENKUlvE_clEvEUlPKNS3_8TypeInfoEPKvE_E15_M_init_functorIRKSE_EEvRSt9_Any_dataOT_.exit.i unwind label %10

10:                                               ; preds = %6
  %11 = landingpad { ptr, i32 }
          cleanup
  tail call void @_ZdlPv(ptr noundef nonnull %7) #25
  resume { ptr, i32 } %11

_ZNSt14_Function_base13_Base_managerIZZN12_GLOBAL__N_14Impl14processRequestEPN3dap4json19JsonCppDeserializerENS3_7integerEENKUlvE_clEvEUlPKNS3_8TypeInfoEPKvE_E15_M_init_functorIRKSE_EEvRSt9_Any_dataOT_.exit.i: ; preds = %6
  store ptr %7, ptr %0, align 8
  br label %_ZNSt14_Function_base13_Base_managerIZZN12_GLOBAL__N_14Impl14processRequestEPN3dap4json19JsonCppDeserializerENS3_7integerEENKUlvE_clEvEUlPKNS3_8TypeInfoEPKvE_E10_M_managerERSt9_Any_dataRKSG_St18_Manager_operation.exit

12:                                               ; preds = %3
  %.val7.i = load ptr, ptr %0, align 8
  %13 = icmp eq ptr %.val7.i, null
  br i1 %13, label %_ZNSt14_Function_base13_Base_managerIZZN12_GLOBAL__N_14Impl14processRequestEPN3dap4json19JsonCppDeserializerENS3_7integerEENKUlvE_clEvEUlPKNS3_8TypeInfoEPKvE_E10_M_managerERSt9_Any_dataRKSG_St18_Manager_operation.exit, label %14

14:                                               ; preds = %12
  %15 = getelementptr inbounds i8, ptr %.val7.i, i64 16
  tail call void @_ZNSt7__cxx1112basic_stringIcSt11char_traitsIcESaIcEED1Ev(ptr noundef nonnull align 8 dereferenceable(32) %15) #22
  tail call void @_ZdlPv(ptr noundef nonnull %.val7.i) #25
  br label %_ZNSt14_Function_base13_Base_managerIZZN12_GLOBAL__N_14Impl14processRequestEPN3dap4json19JsonCppDeserializerENS3_7integerEENKUlvE_clEvEUlPKNS3_8TypeInfoEPKvE_E10_M_managerERSt9_Any_dataRKSG_St18_Manager_operation.exit

_ZNSt14_Function_base13_Base_managerIZZN12_GLOBAL__N_14Impl14processRequestEPN3dap4json19JsonCppDeserializerENS3_7integerEENKUlvE_clEvEUlPKNS3_8TypeInfoEPKvE_E10_M_managerERSt9_Any_dataRKSG_St18_Manager_operation.exit: ; preds = %3, %14, %12, %_ZNSt14_Function_base13_Base_managerIZZN12_GLOBAL__N_14Impl14processRequestEPN3dap4json19JsonCppDeserializerENS3_7integerEENKUlvE_clEvEUlPKNS3_8TypeInfoEPKvE_E15_M_init_functorIRKSE_EEvRSt9_Any_dataOT_.exit.i, %5, %4
  ret i1 false
}